target datalayout = "e-m:e-p270:32:32-p271:32:32-p272:64:64-i64:64-i128:128-f80:128-n8:16:32:64-S128"
target triple = "x86_64-pc-linux-gnu"

%"class.clang::MultiplexExternalSemaSource" = type { %"class.clang::ExternalSemaSource", %"class.llvm::SmallVector" }
%"class.clang::ExternalSemaSource" = type { %"class.clang::ExternalASTSource" }
%"class.clang::ExternalASTSource" = type { ptr, %"class.llvm::RefCountedBase", i32 }
%"class.llvm::RefCountedBase" = type { i32 }
%"class.llvm::SmallVector" = type { %"class.llvm::SmallVectorImpl", %"struct.llvm::SmallVectorStorage" }
%"class.llvm::SmallVectorImpl" = type { %"class.llvm::SmallVectorTemplateBase" }
%"class.llvm::SmallVectorTemplateBase" = type { %"class.llvm::SmallVectorTemplateCommon" }
%"class.llvm::SmallVectorTemplateCommon" = type { %"class.llvm::SmallVectorBase" }
%"class.llvm::SmallVectorBase" = type { ptr, i32, i32 }
%"struct.llvm::SmallVectorStorage" = type { [16 x i8] }
%"class.clang::GlobalDeclID" = type { %"class.clang::DeclIDBase" }
%"class.clang::DeclIDBase" = type { i64 }

; Function Attrs: mustprogress nounwind uwtable
define linkonce_odr hidden noundef ptr @_ZN4llvm25SmallVectorTemplateCommonIPN5clang18ExternalSemaSourceEvE5beginEv(ptr noundef nonnull align 8 dereferenceable(16) %0) #0 comdat align 2 {
  %2 = alloca ptr, align 8
  store ptr %0, ptr %2, align 8
  %3 = load ptr, ptr %2, align 8
  %4 = getelementptr inbounds nuw %"class.llvm::SmallVectorBase", ptr %3, i32 0, i32 0
  %5 = load ptr, ptr %4, align 8
  ret ptr %5
}

; Function Attrs: mustprogress nounwind uwtable
define linkonce_odr hidden noundef nonnull align 8 dereferenceable(8) ptr @_ZN4llvm25SmallVectorTemplateCommonIPN5clang18ExternalSemaSourceEvEixEm(ptr noundef nonnull align 8 dereferenceable(16) %0, i64 noundef %1) #0 comdat align 2 {
  %3 = alloca ptr, align 8
  %4 = alloca i64, align 8
  store ptr %0, ptr %3, align 8
  store i64 %1, ptr %4, align 8
  %5 = load ptr, ptr %3, align 8
  %6 = call noundef ptr @_ZN4llvm25SmallVectorTemplateCommonIPN5clang18ExternalSemaSourceEvE5beginEv(ptr noundef nonnull align 8 dereferenceable(16) %5)
  %7 = load i64, ptr %4, align 8
  %8 = getelementptr inbounds ptr, ptr %6, i64 %7
  ret ptr %8
}

; Function Attrs: mustprogress nounwind uwtable
define dso_local noundef ptr @_ZN5clang27MultiplexExternalSemaSource15GetExternalDeclENS_12GlobalDeclIDE(ptr noundef nonnull align 8 dereferenceable(48) %0, i64 %1) unnamed_addr #0 align 2 {
  %3 = alloca ptr, align 8
  %4 = alloca %"class.clang::GlobalDeclID", align 8
  %5 = alloca ptr, align 8
  %6 = alloca i64, align 8
  %7 = alloca ptr, align 8
  %8 = alloca %"class.clang::GlobalDeclID", align 8
  %9 = getelementptr inbounds nuw %"class.clang::GlobalDeclID", ptr %4, i32 0, i32 0
  %10 = getelementptr inbounds nuw %"class.clang::DeclIDBase", ptr %9, i32 0, i32 0
  store i64 %1, ptr %10, align 8
  store ptr %0, ptr %5, align 8
  %11 = load ptr, ptr %5, align 8
  store i64 0, ptr %6, align 8
  br label %12

12:                                               ; preds = %34, %2
  %13 = load i64, ptr %6, align 8
  %14 = getelementptr inbounds nuw %"class.clang::MultiplexExternalSemaSource", ptr %11, i32 0, i32 1
  %15 = call noundef i64 @_ZNK4llvm15SmallVectorBaseIjE4sizeEv(ptr noundef nonnull align 8 dereferenceable(16) %14)
  %16 = icmp ult i64 %13, %15
  br i1 %16, label %17, label %37

17:                                               ; preds = %12
  %18 = getelementptr inbounds nuw %"class.clang::MultiplexExternalSemaSource", ptr %11, i32 0, i32 1
  %19 = load i64, ptr %6, align 8
  %20 = call noundef nonnull align 8 dereferenceable(8) ptr @_ZN4llvm25SmallVectorTemplateCommonIPN5clang18ExternalSemaSourceEvEixEm(ptr noundef nonnull align 8 dereferenceable(16) %18, i64 noundef %19)
  %21 = load ptr, ptr %20, align 8
  call void @llvm.memcpy.p0.p0.i64(ptr align 8 %8, ptr align 8 %4, i64 8, i1 false)
  %22 = getelementptr inbounds nuw %"class.clang::GlobalDeclID", ptr %8, i32 0, i32 0
  %23 = getelementptr inbounds nuw %"class.clang::DeclIDBase", ptr %22, i32 0, i32 0
  %24 = load i64, ptr %23, align 8
  %25 = load ptr, ptr %21, align 8
  %26 = getelementptr inbounds ptr, ptr %25, i64 2
  %27 = load ptr, ptr %26, align 8
  %28 = call noundef ptr %27(ptr noundef nonnull align 8 dereferenceable(16) %21, i64 %24)
  store ptr %28, ptr %7, align 8
  %29 = load ptr, ptr %7, align 8
  %30 = icmp ne ptr %29, null
  br i1 %30, label %31, label %33

31:                                               ; preds = %17
  %32 = load ptr, ptr %7, align 8
  store ptr %32, ptr %3, align 8
  br label %38

33:                                               ; preds = %17
  br label %34

34:                                               ; preds = %33
  %35 = load i64, ptr %6, align 8
  %36 = add i64 %35, 1
  store i64 %36, ptr %6, align 8
  br label %12, !llvm.loop !4

37:                                               ; preds = %12
  store ptr null, ptr %3, align 8
  br label %38

38:                                               ; preds = %37, %31
  %39 = load ptr, ptr %3, align 8
  ret ptr %39
}