; Function Attrs: mustprogress nounwind uwtable
define dso_local noundef ptr @_ZN5clang27MultiplexExternalSemaSource15GetExternalDeclENS_12GlobalDeclIDE(ptr noundef nonnull align 8 dereferenceable(48) %0, i64 %1) unnamed_addr #0 align 2 {
  %3 = getelementptr inbounds nuw i8, ptr %0, i64 16
  %4 = tail call noundef i64 @_ZNK4llvm15SmallVectorBaseIjE4sizeEv(ptr noundef nonnull align 8 dereferenceable(16) %3) #6
  %.not12 = icmp eq i64 %4, 0
  br i1 %.not12, label %._crit_edge, label %.lr.ph

5:                                                ; preds = %.lr.ph
  %6 = add nuw i64 %.079, 1
  %7 = tail call noundef i64 @_ZNK4llvm15SmallVectorBaseIjE4sizeEv(ptr noundef nonnull align 8 dereferenceable(16) %3) #6
  %8 = icmp ult i64 %6, %7
  br i1 %8, label %.lr.ph, label %._crit_edge, !llvm.loop !4

.lr.ph:                                           ; preds = %2, %5
  %.079 = phi i64 [ %6, %5 ], [ 0, %2 ]
  %9 = load ptr, ptr %3, align 8
  %10 = getelementptr inbounds ptr, ptr %9, i64 %.079
  %11 = load ptr, ptr %10, align 8
  %12 = load ptr, ptr %11, align 8
  %13 = getelementptr inbounds i8, ptr %12, i64 16
  %14 = load ptr, ptr %13, align 8
  %15 = tail call noundef ptr %14(ptr noundef nonnull align 8 dereferenceable(16) %11, i64 %1) #6
  %.not = icmp eq ptr %15, null
  br i1 %.not, label %5, label %._crit_edge

._crit_edge:                                      ; preds = %.lr.ph, %5, %2
  %.0 = phi ptr [ null, %2 ], [ null, %5 ], [ %15, %.lr.ph ]
  ret ptr %.0
}